; Function Attrs: mustprogress nofree norecurse nosync nounwind willreturn memory(read, inaccessiblemem: none) uwtable
define hidden noundef i32 @_ZNK2cv8tracking4impl3tld21TLDEnsembleClassifier4codeEPKhi(ptr noundef nonnull readonly align 8 captures(none) dereferenceable(76) %0, ptr noundef readonly captures(none) %1, i32 noundef %2) local_unnamed_addr #6 align 2 {
  %4 = getelementptr inbounds nuw i8, ptr %0, i64 24
  %5 = getelementptr inbounds nuw i8, ptr %0, i64 32
  %6 = load ptr, ptr %5, align 8, !tbaa !27
  %7 = load ptr, ptr %4, align 8, !tbaa !26
  %8 = ptrtoint ptr %6 to i64
  %9 = ptrtoint ptr %7 to i64
  %10 = sub i64 %8, %9
  %11 = lshr exact i64 %10, 2
  %12 = trunc i64 %11 to i32
  %13 = icmp sgt i32 %12, 0
  br i1 %13, label %.lr.ph.preheader, label %._crit_edge

.lr.ph.preheader:                                 ; preds = %3
  %wide.trip.count = and i64 %11, 2147483647
  br label %.lr.ph

._crit_edge:                                      ; preds = %.lr.ph, %3
  %.013.lcssa = phi i32 [ 0, %3 ], [ %spec.select, %.lr.ph ]
  ret i32 %.013.lcssa

.lr.ph:                                           ; preds = %.lr.ph.preheader, %.lr.ph
  %indvars.iv = phi i64 [ 0, %.lr.ph.preheader ], [ %indvars.iv.next, %.lr.ph ]
  %.01314 = phi i32 [ 0, %.lr.ph.preheader ], [ %spec.select, %.lr.ph ]
  %14 = shl i32 %.01314, 1
  %15 = getelementptr inbounds nuw %"class.cv::Vec", ptr %7, i64 %indvars.iv
  %16 = getelementptr inbounds nuw i8, ptr %15, i64 2
  %17 = load i8, ptr %16, align 1, !tbaa !28
  %18 = zext i8 %17 to i32
  %19 = mul nsw i32 %2, %18
  %20 = sext i32 %19 to i64
  %21 = getelementptr inbounds i8, ptr %1, i64 %20
  %22 = load i8, ptr %15, align 1, !tbaa !28
  %23 = zext i8 %22 to i64
  %24 = getelementptr inbounds nuw i8, ptr %21, i64 %23
  %25 = load i8, ptr %24, align 1, !tbaa !28
  %26 = getelementptr inbounds nuw i8, ptr %15, i64 3
  %27 = load i8, ptr %26, align 1, !tbaa !28
  %28 = zext i8 %27 to i32
  %29 = mul nsw i32 %2, %28
  %30 = sext i32 %29 to i64
  %31 = getelementptr inbounds i8, ptr %1, i64 %30
  %32 = getelementptr inbounds nuw i8, ptr %15, i64 1
  %33 = load i8, ptr %32, align 1, !tbaa !28
  %34 = zext i8 %33 to i64
  %35 = getelementptr inbounds nuw i8, ptr %31, i64 %34
  %36 = load i8, ptr %35, align 1, !tbaa !28
  %37 = icmp ult i8 %25, %36
  %38 = zext i1 %37 to i32
  %spec.select = or disjoint i32 %14, %38
  %indvars.iv.next = add nuw nsw i64 %indvars.iv, 1
  %exitcond.not = icmp eq i64 %indvars.iv.next, %wide.trip.count
  br i1 %exitcond.not, label %._crit_edge, label %.lr.ph, !llvm.loop !44
}